; Function Attrs: nounwind uwtable
define noalias nonnull ptr @l_Lean_Linter_initFn____x40_Lean_Linter_Deprecated___hyg_88____lambda__2(ptr noundef %0, ptr noundef %1, ptr readnone captures(none) %2, ptr noundef %3, ptr noundef %4, ptr noundef %5) local_unnamed_addr #0 {
  %7 = load ptr, ptr @l_Lean_Linter_initFn____x40_Lean_Linter_Deprecated___hyg_88____lambda__2___closed__3, align 8, !tbaa !4
  %8 = ptrtoint ptr %3 to i64
  %9 = and i64 %8, 1
  %.not = icmp eq i64 %9, 0
  br i1 %.not, label %10, label %lean_inc.exit20

10:                                               ; preds = %6
  %.val.i = load i32, ptr %3, align 4, !tbaa !8
  %11 = icmp sgt i32 %.val.i, 0
  br i1 %11, label %12, label %14, !prof !11

12:                                               ; preds = %10
  %13 = add nuw i32 %.val.i, 1
  store i32 %13, ptr %3, align 4, !tbaa !8
  br label %lean_inc.exit20

14:                                               ; preds = %10
  %.not.i27 = icmp eq i32 %.val.i, 0
  br i1 %.not.i27, label %lean_inc.exit20, label %15

15:                                               ; preds = %14
  tail call void @lean_inc_ref_cold(ptr noundef nonnull %3) #4
  br label %lean_inc.exit20

lean_inc.exit20:                                  ; preds = %15, %14, %12, %6
  %16 = tail call ptr @l_Lean_logWarning___at_Lean_Linter_initFn____x40_Lean_Linter_Deprecated___hyg_88____spec__2(ptr noundef %7, ptr noundef %3, ptr noundef %4, ptr noundef %5)
  %17 = getelementptr inbounds nuw i8, ptr %16, i64 8
  %18 = load ptr, ptr %17, align 8, !tbaa !4
  %19 = ptrtoint ptr %18 to i64
  %20 = and i64 %19, 1
  %.not34 = icmp eq i64 %20, 0
  br i1 %.not34, label %21, label %lean_inc.exit19

21:                                               ; preds = %lean_inc.exit20
  %.val.i28 = load i32, ptr %18, align 4, !tbaa !8
  %22 = icmp sgt i32 %.val.i28, 0
  br i1 %22, label %23, label %25, !prof !11

23:                                               ; preds = %21
  %24 = add nuw i32 %.val.i28, 1
  store i32 %24, ptr %18, align 4, !tbaa !8
  br label %lean_inc.exit19

25:                                               ; preds = %21
  %.not.i29 = icmp eq i32 %.val.i28, 0
  br i1 %.not.i29, label %lean_inc.exit19, label %26

26:                                               ; preds = %25
  tail call void @lean_inc_ref_cold(ptr noundef nonnull %18) #4
  br label %lean_inc.exit19

lean_inc.exit19:                                  ; preds = %26, %25, %23, %lean_inc.exit20
  %27 = getelementptr inbounds nuw i8, ptr %16, i64 16
  %28 = load ptr, ptr %27, align 8, !tbaa !4
  %29 = ptrtoint ptr %28 to i64
  %30 = and i64 %29, 1
  %.not35 = icmp eq i64 %30, 0
  br i1 %.not35, label %31, label %lean_inc.exit

31:                                               ; preds = %lean_inc.exit19
  %.val.i31 = load i32, ptr %28, align 4, !tbaa !8
  %32 = icmp sgt i32 %.val.i31, 0
  br i1 %32, label %33, label %35, !prof !11

33:                                               ; preds = %31
  %34 = add nuw i32 %.val.i31, 1
  store i32 %34, ptr %28, align 4, !tbaa !8
  br label %lean_inc.exit

35:                                               ; preds = %31
  %.not.i32 = icmp eq i32 %.val.i31, 0
  br i1 %.not.i32, label %lean_inc.exit, label %36

36:                                               ; preds = %35
  tail call void @lean_inc_ref_cold(ptr noundef nonnull %28) #4
  br label %lean_inc.exit

lean_inc.exit:                                    ; preds = %36, %35, %33, %lean_inc.exit19
  %37 = ptrtoint ptr %16 to i64
  %38 = and i64 %37, 1
  %.not36 = icmp eq i64 %38, 0
  br i1 %.not36, label %39, label %lean_dec.exit22

39:                                               ; preds = %lean_inc.exit
  %40 = load i32, ptr %16, align 4, !tbaa !8
  %41 = icmp sgt i32 %40, 1
  br i1 %41, label %42, label %44, !prof !11

42:                                               ; preds = %39
  %43 = add nsw i32 %40, -1
  store i32 %43, ptr %16, align 4, !tbaa !8
  br label %lean_dec.exit22

44:                                               ; preds = %39
  %.not.i = icmp eq i32 %40, 0
  br i1 %.not.i, label %lean_dec.exit22, label %45

45:                                               ; preds = %44
  tail call void @lean_dec_ref_cold(ptr noundef nonnull %16) #4
  br label %lean_dec.exit22

lean_dec.exit22:                                  ; preds = %45, %44, %42, %lean_inc.exit
  %46 = tail call ptr @l_Lean_Linter_initFn____x40_Lean_Linter_Deprecated___hyg_88____lambda__1(ptr noundef %0, ptr noundef %1, ptr poison, ptr poison, ptr poison, ptr noundef %28)
  br i1 %.not, label %47, label %lean_dec.exit21

47:                                               ; preds = %lean_dec.exit22
  %48 = load i32, ptr %3, align 4, !tbaa !8
  %49 = icmp sgt i32 %48, 1
  br i1 %49, label %50, label %52, !prof !11

50:                                               ; preds = %47
  %51 = add nsw i32 %48, -1
  store i32 %51, ptr %3, align 4, !tbaa !8
  br label %lean_dec.exit21

52:                                               ; preds = %47
  %.not.i23 = icmp eq i32 %48, 0
  br i1 %.not.i23, label %lean_dec.exit21, label %53

53:                                               ; preds = %52
  tail call void @lean_dec_ref_cold(ptr noundef nonnull %3) #4
  br label %lean_dec.exit21

lean_dec.exit21:                                  ; preds = %53, %52, %50, %lean_dec.exit22
  br i1 %.not34, label %54, label %lean_dec.exit

54:                                               ; preds = %lean_dec.exit21
  %55 = load i32, ptr %18, align 4, !tbaa !8
  %56 = icmp sgt i32 %55, 1
  br i1 %56, label %57, label %59, !prof !11

57:                                               ; preds = %54
  %58 = add nsw i32 %55, -1
  store i32 %58, ptr %18, align 4, !tbaa !8
  br label %lean_dec.exit

59:                                               ; preds = %54
  %.not.i25 = icmp eq i32 %55, 0
  br i1 %.not.i25, label %lean_dec.exit, label %60

60:                                               ; preds = %59
  tail call void @lean_dec_ref_cold(ptr noundef nonnull %18) #4
  br label %lean_dec.exit

lean_dec.exit:                                    ; preds = %60, %59, %57, %lean_dec.exit21
  ret ptr %46
}